; ModuleID = '26/666.c'
source_filename = "26/666.c"
target datalayout = "e-m:e-p270:32:32-p271:32:32-p272:64:64-i64:64-f80:128-n8:16:32:64-S128"
target triple = "x86_64-pc-linux-gnu"

; Function Attrs: noinline nounwind uwtable
define dso_local i32 @main() #0 {
  %1 = alloca i32, align 4
  %2 = alloca [102 x i8], align 16
  %3 = alloca i8*, align 8
  %4 = alloca i8, align 1
  store i32 0, i32* %1, align 4
  %5 = bitcast [102 x i8]* %2 to i8*
  call void @llvm.memset.p0i8.i64(i8* align 16 %5, i8 0, i64 102, i1 false)
  %6 = getelementptr inbounds [102 x i8], [102 x i8]* %2, i64 0, i64 0
  %7 = getelementptr inbounds i8, i8* %6, i64 1
  store i8* %7, i8** %3, align 8
  %8 = getelementptr inbounds [102 x i8], [102 x i8]* %2, i64 0, i64 0
  %9 = getelementptr inbounds i8, i8* %8, i64 1
  %10 = call i32 (i8*, ...) bitcast (i32 (...)* @gets to i32 (i8*, ...)*)(i8* %9)
  %11 = getelementptr inbounds [102 x i8], [102 x i8]* %2, i64 0, i64 0
  %12 = load i8, i8* %11, align 16
  store i8 %12, i8* %4, align 1
  br label %13

13:                                               ; preds = %33, %0
  %14 = load i8, i8* %4, align 1
  %15 = sext i8 %14 to i32
  %16 = icmp ne i32 %15, 32
  br i1 %16, label %24, label %17

17:                                               ; preds = %13
  %18 = load i8, i8* %4, align 1
  %19 = sext i8 %18 to i32
  %20 = load i8*, i8** %3, align 8
  %21 = load i8, i8* %20, align 1
  %22 = sext i8 %21 to i32
  %23 = icmp ne i32 %19, %22
  br i1 %23, label %24, label %29

24:                                               ; preds = %17, %13
  %25 = load i8*, i8** %3, align 8
  %26 = load i8, i8* %25, align 1
  %27 = sext i8 %26 to i32
  %28 = call i32 @putchar(i32 %27)
  br label %29

29:                                               ; preds = %24, %17
  %30 = load i8*, i8** %3, align 8
  %31 = getelementptr inbounds i8, i8* %30, i32 1
  store i8* %31, i8** %3, align 8
  %32 = load i8, i8* %30, align 1
  store i8 %32, i8* %4, align 1
  br label %33

33:                                               ; preds = %29
  %34 = load i8*, i8** %3, align 8
  %35 = load i8, i8* %34, align 1
  %36 = icmp ne i8 %35, 0
  br i1 %36, label %13, label %37

37:                                               ; preds = %33
  %38 = call i32 @putchar(i32 10)
  ret i32 0
}

; Function Attrs: argmemonly nounwind willreturn
declare void @llvm.memset.p0i8.i64(i8* nocapture writeonly, i8, i64, i1 immarg) #1

declare dso_local i32 @gets(...) #2

declare dso_local i32 @putchar(i32) #2


!llvm.module.flags = !{!0}
!llvm.ident = !{!1}

!0 = !{i32 1, !"wchar_size", i32 4}
!1 = !{!"clang version 10.0.0-4ubuntu1 "}
