; ModuleID = 'source-C-CXX/25/666.c'
source_filename = "source-C-CXX/25/666.c"
target datalayout = "e-m:e-p270:32:32-p271:32:32-p272:64:64-i64:64-f80:128-n8:16:32:64-S128"
target triple = "x86_64-pc-linux-gnu"

%struct._IO_FILE = type { i32, i8*, i8*, i8*, i8*, i8*, i8*, i8*, i8*, i8*, i8*, i8*, %struct._IO_marker*, %struct._IO_FILE*, i32, i32, i64, i16, i8, [1 x i8], i8*, i64, %struct._IO_codecvt*, %struct._IO_wide_data*, %struct._IO_FILE*, i8*, i64, i32, [20 x i8] }
%struct._IO_marker = type opaque
%struct._IO_codecvt = type opaque
%struct._IO_wide_data = type opaque

@stdout = external local_unnamed_addr global %struct._IO_FILE*, align 8

; Function Attrs: nounwind sspstrong uwtable
define dso_local i32 @main() local_unnamed_addr #0 {
  %1 = alloca [102 x i8], align 16
  %2 = getelementptr inbounds [102 x i8], [102 x i8]* %1, i64 0, i64 0
  call void @llvm.lifetime.start.p0i8(i64 102, i8* nonnull %2) #5
  call void @llvm.memset.p0i8.i64(i8* noundef nonnull align 16 dereferenceable(102) %2, i8 0, i64 102, i1 false)
  %3 = getelementptr inbounds [102 x i8], [102 x i8]* %1, i64 0, i64 1
  %4 = call i32 (i8*, ...) bitcast (i32 (...)* @gets to i32 (i8*, ...)*)(i8* nonnull %3) #5
  %5 = load i8, i8* %2, align 16, !tbaa !5
  br label %6

6:                                                ; preds = %18, %0
  %7 = phi i8* [ %3, %0 ], [ %20, %18 ]
  %8 = phi i8 [ %5, %0 ], [ %19, %18 ]
  %9 = icmp eq i8 %8, 32
  %10 = load i8, i8* %7, align 1, !tbaa !5
  %11 = icmp eq i8 %10, 32
  %12 = select i1 %9, i1 %11, i1 false
  br i1 %12, label %18, label %13

13:                                               ; preds = %6
  %14 = sext i8 %10 to i32
  %15 = load %struct._IO_FILE*, %struct._IO_FILE** @stdout, align 8, !tbaa !8
  %16 = call i32 @putc(i32 %14, %struct._IO_FILE* %15) #5
  %17 = load i8, i8* %7, align 1, !tbaa !5
  br label %18

18:                                               ; preds = %6, %13
  %19 = phi i8 [ %17, %13 ], [ 32, %6 ]
  %20 = getelementptr inbounds i8, i8* %7, i64 1
  %21 = load i8, i8* %20, align 1, !tbaa !5
  %22 = icmp eq i8 %21, 0
  br i1 %22, label %23, label %6, !llvm.loop !10

23:                                               ; preds = %18
  %24 = load %struct._IO_FILE*, %struct._IO_FILE** @stdout, align 8, !tbaa !8
  %25 = call i32 @putc(i32 10, %struct._IO_FILE* %24) #5
  call void @llvm.lifetime.end.p0i8(i64 102, i8* nonnull %2) #5
  ret i32 0
}

; Function Attrs: argmemonly mustprogress nofree nosync nounwind willreturn
declare void @llvm.lifetime.start.p0i8(i64 immarg, i8* nocapture) #1

; Function Attrs: argmemonly mustprogress nofree nounwind willreturn writeonly
declare void @llvm.memset.p0i8.i64(i8* nocapture writeonly, i8, i64, i1 immarg) #2

declare i32 @gets(...) local_unnamed_addr #3

; Function Attrs: argmemonly mustprogress nofree nosync nounwind willreturn
declare void @llvm.lifetime.end.p0i8(i64 immarg, i8* nocapture) #1

; Function Attrs: nofree nounwind
declare noundef i32 @putc(i32 noundef, %struct._IO_FILE* nocapture noundef) local_unnamed_addr #4


!llvm.module.flags = !{!0, !1, !2, !3}
!llvm.ident = !{!4}

!0 = !{i32 1, !"wchar_size", i32 4}
!1 = !{i32 7, !"PIC Level", i32 2}
!2 = !{i32 7, !"PIE Level", i32 2}
!3 = !{i32 7, !"uwtable", i32 1}
!4 = !{!"clang version 13.0.0"}
!5 = !{!6, !6, i64 0}
!6 = !{!"omnipotent char", !7, i64 0}
!7 = !{!"Simple C/C++ TBAA"}
!8 = !{!9, !9, i64 0}
!9 = !{!"any pointer", !6, i64 0}
!10 = distinct !{!10, !11}
!11 = !{!"llvm.loop.mustprogress"}
